; Function Attrs: nounwind uwtable
define internal fastcc ptr @read_multiple(ptr noundef readonly captures(none) %0, i64 noundef %1, i64 noundef %2) unnamed_addr #0 {
  %4 = tail call ptr @PyBytes_FromStringAndSize(ptr noundef null, i64 noundef %1) #5
  %5 = icmp eq ptr %4, null
  br i1 %5, label %24, label %6

6:                                                ; preds = %3
  %7 = getelementptr inbounds nuw i8, ptr %4, i64 32
  %8 = tail call ptr @PyEval_SaveThread() #5
  %9 = getelementptr inbounds nuw i8, ptr %0, i64 24
  %10 = load ptr, ptr %9, align 8, !tbaa !22
  %11 = trunc i64 %1 to i32
  %12 = trunc i64 %2 to i32
  %13 = tail call i32 @sqlite3_blob_read(ptr noundef %10, ptr noundef nonnull %7, i32 noundef %11, i32 noundef %12) #5
  tail call void @PyEval_RestoreThread(ptr noundef %8) #5
  %.not = icmp eq i32 %13, 0
  br i1 %.not, label %24, label %14

14:                                               ; preds = %6
  %15 = load i32, ptr %4, align 8, !tbaa !25
  %.not.i = icmp sgt i32 %15, -1
  br i1 %.not.i, label %16, label %Py_DECREF.exit

16:                                               ; preds = %14
  %17 = add nsw i32 %15, -1
  store i32 %17, ptr %4, align 8, !tbaa !25
  %18 = icmp eq i32 %17, 0
  br i1 %18, label %19, label %Py_DECREF.exit

19:                                               ; preds = %16
  tail call void @_Py_Dealloc(ptr noundef nonnull %4) #5
  br label %Py_DECREF.exit

Py_DECREF.exit:                                   ; preds = %14, %16, %19
  %20 = getelementptr i8, ptr %0, i64 16
  %.val = load ptr, ptr %20, align 8, !tbaa !39
  %21 = getelementptr i8, ptr %.val, i64 16
  %.val.val = load ptr, ptr %21, align 8, !tbaa !43
  %22 = getelementptr i8, ptr %.val, i64 24
  %.val.val15 = load ptr, ptr %22, align 8, !tbaa !41
  %23 = tail call i32 @_pysqlite_seterror(ptr noundef %.val.val15, ptr noundef %.val.val) #5
  br label %24

24:                                               ; preds = %Py_DECREF.exit, %6, %3
  %.0 = phi ptr [ null, %3 ], [ null, %Py_DECREF.exit ], [ %4, %6 ]
  ret ptr %.0
}